target datalayout = "e-m:e-p270:32:32-p271:32:32-p272:64:64-i64:64-i128:128-f80:128-n8:16:32:64-S128"
target triple = "x86_64-pc-linux-gnu"

%struct._fcgi_request = type { i32, i32, i32, i32, i32, i32, i32, i32, i32, ptr, ptr, [8192 x i8], [16 x i8], %struct._fcgi_req_hook, i32, %struct._fcgi_hash }
%struct._fcgi_req_hook = type { ptr, ptr, ptr }
%struct._fcgi_hash = type { [128 x ptr], ptr, ptr, ptr }
%struct._fcgi_hash_bucket = type { i32, i32, ptr, i32, ptr, ptr, ptr }

; Function Attrs: nounwind uwtable
define internal void @fcgi_hash_apply(ptr noundef %0, ptr noundef %1, ptr noundef %2) #0 {
  %4 = alloca ptr, align 8
  %5 = alloca ptr, align 8
  %6 = alloca ptr, align 8
  %7 = alloca ptr, align 8
  store ptr %0, ptr %4, align 8
  store ptr %1, ptr %5, align 8
  store ptr %2, ptr %6, align 8
  %8 = load ptr, ptr %4, align 8
  %9 = getelementptr inbounds %struct._fcgi_hash, ptr %8, i32 0, i32 1
  %10 = load ptr, ptr %9, align 8
  store ptr %10, ptr %7, align 8
  br label %11

11:                                               ; preds = %39, %3
  %12 = load ptr, ptr %7, align 8
  %13 = icmp ne ptr %12, null
  br i1 %13, label %14, label %43

14:                                               ; preds = %11
  %15 = load ptr, ptr %7, align 8
  %16 = getelementptr inbounds %struct._fcgi_hash_bucket, ptr %15, i32 0, i32 4
  %17 = load ptr, ptr %16, align 8
  %18 = icmp ne ptr %17, null
  %19 = xor i1 %18, true
  %20 = xor i1 %19, true
  %21 = zext i1 %20 to i32
  %22 = sext i32 %21 to i64
  %23 = icmp ne i64 %22, 0
  br i1 %23, label %24, label %39

24:                                               ; preds = %14
  %25 = load ptr, ptr %5, align 8
  %26 = load ptr, ptr %7, align 8
  %27 = getelementptr inbounds %struct._fcgi_hash_bucket, ptr %26, i32 0, i32 2
  %28 = load ptr, ptr %27, align 8
  %29 = load ptr, ptr %7, align 8
  %30 = getelementptr inbounds %struct._fcgi_hash_bucket, ptr %29, i32 0, i32 1
  %31 = load i32, ptr %30, align 4
  %32 = load ptr, ptr %7, align 8
  %33 = getelementptr inbounds %struct._fcgi_hash_bucket, ptr %32, i32 0, i32 4
  %34 = load ptr, ptr %33, align 8
  %35 = load ptr, ptr %7, align 8
  %36 = getelementptr inbounds %struct._fcgi_hash_bucket, ptr %35, i32 0, i32 3
  %37 = load i32, ptr %36, align 8
  %38 = load ptr, ptr %6, align 8
  call void %25(ptr noundef %28, i32 noundef %31, ptr noundef %34, i32 noundef %37, ptr noundef %38)
  br label %39

39:                                               ; preds = %24, %14
  %40 = load ptr, ptr %7, align 8
  %41 = getelementptr inbounds %struct._fcgi_hash_bucket, ptr %40, i32 0, i32 6
  %42 = load ptr, ptr %41, align 8
  store ptr %42, ptr %7, align 8
  br label %11

43:                                               ; preds = %11
  ret void
}

; Function Attrs: nounwind uwtable
define hidden void @fcgi_loadenv(ptr noundef %0, ptr noundef %1, ptr noundef %2) #0 {
  %4 = alloca ptr, align 8
  %5 = alloca ptr, align 8
  %6 = alloca ptr, align 8
  store ptr %0, ptr %4, align 8
  store ptr %1, ptr %5, align 8
  store ptr %2, ptr %6, align 8
  %7 = load ptr, ptr %4, align 8
  %8 = getelementptr inbounds %struct._fcgi_request, ptr %7, i32 0, i32 15
  %9 = load ptr, ptr %5, align 8
  %10 = load ptr, ptr %6, align 8
  call void @fcgi_hash_apply(ptr noundef %8, ptr noundef %9, ptr noundef %10)
  ret void
}