; Function Attrs: nounwind uwtable
define hidden void @fcgi_loadenv(ptr nocapture noundef readonly %0, ptr nocapture noundef readonly %1, ptr noundef %2) local_unnamed_addr #3 {
  %4 = getelementptr inbounds i8, ptr %0, i64 9320
  %.012.i = load ptr, ptr %4, align 8
  %.not13.i = icmp eq ptr %.012.i, null
  br i1 %.not13.i, label %fcgi_hash_apply.exit, label %.lr.ph.i

.lr.ph.i:                                         ; preds = %3, %14
  %.014.i = phi ptr [ %.0.i, %14 ], [ %.012.i, %3 ]
  %5 = getelementptr inbounds i8, ptr %.014.i, i64 24
  %6 = load ptr, ptr %5, align 8
  %.not11.i = icmp eq ptr %6, null
  br i1 %.not11.i, label %14, label %7

7:                                                ; preds = %.lr.ph.i
  %8 = getelementptr inbounds i8, ptr %.014.i, i64 8
  %9 = load ptr, ptr %8, align 8
  %10 = getelementptr inbounds i8, ptr %.014.i, i64 4
  %11 = load i32, ptr %10, align 4
  %12 = getelementptr inbounds i8, ptr %.014.i, i64 16
  %13 = load i32, ptr %12, align 8
  tail call void %1(ptr noundef %9, i32 noundef %11, ptr noundef nonnull %6, i32 noundef %13, ptr noundef %2) #32
  br label %14

14:                                               ; preds = %7, %.lr.ph.i
  %15 = getelementptr inbounds i8, ptr %.014.i, i64 40
  %.0.i = load ptr, ptr %15, align 8
  %.not.i = icmp eq ptr %.0.i, null
  br i1 %.not.i, label %fcgi_hash_apply.exit, label %.lr.ph.i

fcgi_hash_apply.exit:                             ; preds = %14, %3
  ret void
}